target datalayout = "e-m:e-p270:32:32-p271:32:32-p272:64:64-i64:64-i128:128-f80:128-n8:16:32:64-S128"
target triple = "x86_64-pc-linux-gnu"

%struct.AVIODirEntry = type { ptr, i32, i32, i64, i64, i64, i64, i64, i64, i64 }

; Function Attrs: nounwind uwtable
define void @avio_free_directory_entry(ptr noundef %0) #1 {
  %2 = alloca ptr, align 8
  store ptr %0, ptr %2, align 8, !tbaa !111
  %3 = load ptr, ptr %2, align 8, !tbaa !111
  %4 = icmp ne ptr %3, null
  br i1 %4, label %5, label %9

5:                                                ; preds = %1
  %6 = load ptr, ptr %2, align 8, !tbaa !111
  %7 = load ptr, ptr %6, align 8, !tbaa !113
  %8 = icmp ne ptr %7, null
  br i1 %8, label %10, label %9

9:                                                ; preds = %5, %1
  br label %16

10:                                               ; preds = %5
  %11 = load ptr, ptr %2, align 8, !tbaa !111
  %12 = load ptr, ptr %11, align 8, !tbaa !113
  %13 = getelementptr inbounds nuw %struct.AVIODirEntry, ptr %12, i32 0, i32 0
  %14 = load ptr, ptr %13, align 8, !tbaa !115
  call void @av_free(ptr noundef %14)
  %15 = load ptr, ptr %2, align 8, !tbaa !111
  call void @av_freep(ptr noundef %15)
  br label %16

16:                                               ; preds = %10, %9
  ret void
}