; Function Attrs: nounwind uwtable
define void @avio_free_directory_entry(ptr noundef %0) local_unnamed_addr #3 {
  %.not = icmp eq ptr %0, null
  br i1 %.not, label %6, label %2

2:                                                ; preds = %1
  %3 = load ptr, ptr %0, align 8, !tbaa !96
  %.not5 = icmp eq ptr %3, null
  br i1 %.not5, label %6, label %4

4:                                                ; preds = %2
  %5 = load ptr, ptr %3, align 8, !tbaa !98
  tail call void @av_free(ptr noundef %5) #12
  tail call void @av_freep(ptr noundef nonnull %0) #12
  br label %6

6:                                                ; preds = %1, %2, %4
  ret void
}